Certificate:
    Data:
        Version: 3 (0x2)
        Serial Number:
            04:d5:4d:c0:a2:01:6b:26:3e:ee:b2:55:d3:21:05:6e
    Signature Algorithm: sha1WithRSAEncryption
        Issuer: C=US, O=DigiCert Inc, OU=www.digicert.com, CN=DigiCert Assured ID Code Signing CA-1
        Validity
            Not Before: Aug 13 00:00:00 2013 GMT
            Not After : Sep  2 12:00:00 2016 GMT
        Subject: C=US, ST=California, L=Pleasanton, O=OpenVPN Technologies, Inc., CN=OpenVPN Technologies, Inc.
        Subject Public Key Info:
            Public Key Algorithm: rsaEncryption
                Public-Key: (2048 bit)
                Modulus:
                    00:a1:04:62:09:91:50:b2:57:5b:c0:37:61:47:01:
                    c2:92:ba:96:e9:82:70:fd:b0:6e:1d:1f:40:34:3e:
                    72:0e:25:9d:6f:9f:df:59:bc:b9:36:5f:8c:ea:69:
                    68:9a:ed:7a:43:54:59:1d:b7:55:09:82:6a:d7:1a:
                    b3:f0:0c:b1:8e:d1:11:57:ef:fc:5e:b3:bf:57:30:
                    b3:3b:5b:a7:6f:d7:3f:3f:d7:f1:b2:25:64:10:22:
                    3a:7f:8f:5f:52:b6:fb:8b:31:a9:79:cc:50:f8:31:
                    88:0f:c8:37:c8:11:68:e7:4d:d4:f5:73:68:ef:55:
                    a1:db:e4:80:a8:15:12:8e:0d:94:4d:4d:70:be:02:
                    ed:65:ef:e4:86:a0:20:f5:0d:fd:fe:6d:2a:0d:fa:
                    b3:ff:98:85:fd:b1:bc:39:b7:9b:b0:a3:81:83:e4:
                    2d:55:7a:60:da:66:88:3c:33:07:c2:08:65:5d:a1:
                    a4:3e:eb:23:93:ea:10:b2:00:f5:5d:df:d6:6d:a4:
                    7e:ae:91:1e:eb:e4:31:13:c7:aa:fd:f8:e1:3d:2f:
                    ef:26:04:ea:c2:e3:73:90:21:81:6b:32:3d:c9:ef:
                    0f:84:11:a1:a7:92:10:23:ff:3c:d7:f1:f4:d4:30:
                    7f:6a:d1:38:16:d4:7b:93:82:3c:96:83:06:93:15:
                    08:8d
                Exponent: 65537 (0x10001)
        X509v3 extensions:
            X509v3 Authority Key Identifier: 
                keyid:7B:68:CE:29:AA:C0:17:BE:49:7A:E1:E5:3F:D6:A7:F7:45:8F:35:32

            X509v3 Subject Key Identifier: 
                9A:FE:50:CC:7C:72:3E:76:B4:9C:03:6A:97:A8:8C:81:35:CB:66:51
            X509v3 Key Usage: critical
                Digital Signature
            X509v3 Extended Key Usage: 
                Code Signing
            X509v3 CRL Distribution Points: 

                Full Name:
                  URI:http://crl3.digicert.com/assured-cs-2011a.crl

                Full Name:
                  URI:http://crl4.digicert.com/assured-cs-2011a.crl

            X509v3 Certificate Policies: 
                Policy: 2.16.840.1.114412.3.1
                  CPS: http://www.digicert.com/ssl-cps-repository.htm
                  User Notice:
                    Explicit Text: 

            Authority Information Access: 
                OCSP - URI:http://ocsp.digicert.com
                CA Issuers - URI:http://cacerts.digicert.com/DigiCertAssuredIDCodeSigningCA-1.crt

            X509v3 Basic Constraints: critical
                CA:FALSE
    Signature Algorithm: sha1WithRSAEncryption
         35:d3:e4:02:ab:7e:93:e4:c8:4f:74:47:5c:24:03:fb:af:99:
         33:5b:eb:29:ae:f7:6c:0c:ba:df:9e:ed:47:6e:26:ae:26:aa:
         5e:87:bb:55:e8:51:92:6d:2d:b9:86:d6:74:ef:d7:1a:be:7e:
         cd:c4:b5:7c:98:d6:5b:86:27:25:bd:09:e4:66:94:9c:3c:f6:
         8c:b4:06:31:d7:34:ee:94:8e:4a:7e:5c:84:9e:df:97:57:53:
         0a:17:e8:5c:91:e3:db:c6:1e:31:a5:d3:0b:72:50:e8:33:16:
         c2:37:28:cc:3f:c0:c7:21:f6:17:80:a9:f8:54:2b:57:51:31:
         65:24:26:be:91:88:5d:97:56:31:3e:ff:30:87:55:b6:0c:cf:
         6a:de:5f:7b:d7:e3:26:90:a5:1c:0b:47:0a:3b:fe:9d:be:da:
         d7:4b:53:53:49:ff:46:9b:aa:3e:4d:74:1d:7d:b0:11:50:1f:
         80:af:dc:41:38:a3:45:c3:6e:78:71:06:81:be:9d:5b:2b:d4:
         56:20:bf:ad:df:8e:4e:bd:58:e0:82:02:96:f5:c4:0c:06:fc:
         48:db:18:7f:f4:9f:ca:f4:89:86:6f:da:e7:c4:d7:22:4e:35:
         48:ba:c3:84:a5:e7:b5:91:75:c8:fd:6a:66:7f:a6:ee:38:38:
         80:2c:e9:be

-----BEGIN CERTIFICATE-----
MIIGtjCCBZ6gAwIBAgIQBNVNwKIBayY+7rJV0yEFbjANBgkqhkiG9w0BAQUFADBv
MQswCQYDVQQGEwJVUzEVMBMGA1UEChMMRGlnaUNlcnQgSW5jMRkwFwYDVQQLExB3
d3cuZGlnaWNlcnQuY29tMS4wLAYDVQQDEyVEaWdpQ2VydCBBc3N1cmVkIElEIENv
ZGUgU2lnbmluZyBDQS0xMB4XDTEzMDgxMzAwMDAwMFoXDTE2MDkwMjEyMDAwMFow
gYExCzAJBgNVBAYTAlVTMRMwEQYDVQQIEwpDYWxpZm9ybmlhMRMwEQYDVQQHEwpQ
bGVhc2FudG9uMSMwIQYDVQQKExpPcGVuVlBOIFRlY2hub2xvZ2llcywgSW5jLjEj
MCEGA1UEAxMaT3BlblZQTiBUZWNobm9sb2dpZXMsIEluYy4wggEiMA0GCSqGSIb3
DQEBAQUAA4IBDwAwggEKAoIBAQChBGIJkVCyV1vAN2FHAcKSupbpgnD9sG4dH0A0
PnIOJZ1vn99ZvLk2X4zqaWia7XpDVFkdt1UJgmrXGrPwDLGO0RFX7/xes79XMLM7
W6dv1z8/1/GyJWQQIjp/j19StvuLMal5zFD4MYgPyDfIEWjnTdT1c2jvVaHb5ICo
FRKODZRNTXC+Au1l7+SGoCD1Df3+bSoN+rP/mIX9sbw5t5uwo4GD5C1VemDaZog8
MwfCCGVdoaQ+6yOT6hCyAPVd39ZtpH6ukR7r5DETx6r9+OE9L+8mBOrC43OQIYFr
Mj3J7w+EEaGnkhAj/zzX8fTUMH9q0TgW1HuTgjyWgwaTFQiNAgMBAAGjggM5MIID
NTAfBgNVHSMEGDAWgBR7aM4pqsAXvkl64eU/1qf3RY81MjAdBgNVHQ4EFgQUmv5Q
zHxyPna0nANql6iMgTXLZlEwDgYDVR0PAQH/BAQDAgeAMBMGA1UdJQQMMAoGCCsG
AQUFBwMDMHMGA1UdHwRsMGowM6AxoC+GLWh0dHA6Ly9jcmwzLmRpZ2ljZXJ0LmNv
bS9hc3N1cmVkLWNzLTIwMTFhLmNybDAzoDGgL4YtaHR0cDovL2NybDQuZGlnaWNl
cnQuY29tL2Fzc3VyZWQtY3MtMjAxMWEuY3JsMIIBxAYDVR0gBIIBuzCCAbcwggGz
BglghkgBhv1sAwEwggGkMDoGCCsGAQUFBwIBFi5odHRwOi8vd3d3LmRpZ2ljZXJ0
LmNvbS9zc2wtY3BzLXJlcG9zaXRvcnkuaHRtMIIBZAYIKwYBBQUHAgIwggFWHoIB
UgBBAG4AeQAgAHUAcwBlACAAbwBmACAAdABoAGkAcwAgAEMAZQByAHQAaQBmAGkA
YwBhAHQAZQAgAGMAbwBuAHMAdABpAHQAdQB0AGUAcwAgAGEAYwBjAGUAcAB0AGEA
bgBjAGUAIABvAGYAIAB0AGgAZQAgAEQAaQBnAGkAQwBlAHIAdAAgAEMAUAAvAEMA
UABTACAAYQBuAGQAIAB0AGgAZQAgAFIAZQBsAHkAaQBuAGcAIABQAGEAcgB0AHkA
IABBAGcAcgBlAGUAbQBlAG4AdAAgAHcAaABpAGMAaAAgAGwAaQBtAGkAdAAgAGwA
aQBhAGIAaQBsAGkAdAB5ACAAYQBuAGQAIABhAHIAZQAgAGkAbgBjAG8AcgBwAG8A
cgBhAHQAZQBkACAAaABlAHIAZQBpAG4AIABiAHkAIAByAGUAZgBlAHIAZQBuAGMA
ZQAuMIGCBggrBgEFBQcBAQR2MHQwJAYIKwYBBQUHMAGGGGh0dHA6Ly9vY3NwLmRp
Z2ljZXJ0LmNvbTBMBggrBgEFBQcwAoZAaHR0cDovL2NhY2VydHMuZGlnaWNlcnQu
Y29tL0RpZ2lDZXJ0QXNzdXJlZElEQ29kZVNpZ25pbmdDQS0xLmNydDAMBgNVHRMB
Af8EAjAAMA0GCSqGSIb3DQEBBQUAA4IBAQA10+QCq36T5MhPdEdcJAP7r5kzW+sp
rvdsDLrfnu1HbiauJqpeh7tV6FGSbS25htZ079cavn7NxLV8mNZbhiclvQnkZpSc
PPaMtAYx1zTulI5KflyEnt+XV1MKF+hckePbxh4xpdMLclDoMxbCNyjMP8DHIfYX
gKn4VCtXUTFlJCa+kYhdl1YxPv8wh1W2DM9q3l971+MmkKUcC0cKO/6dvtrXS1NT
Sf9Gm6o+TXQdfbARUB+Ar9xBOKNFw254cQaBvp1bK9RWIL+t345OvVjgggKW9cQM
BvxI2xh/9J/K9ImGb9rnxNciTjVIusOEpee1kXXI/Wpmf6buODiALOm+
-----END CERTIFICATE-----
